target datalayout = "e-m:e-p270:32:32-p271:32:32-p272:64:64-i64:64-i128:128-f80:128-n8:16:32:64-S128"
target triple = "x86_64-pc-linux-gnu"

%struct.cJSON = type { ptr, ptr, ptr, i32, ptr, i32, double, ptr }

; Function Attrs: nounwind sspstrong uwtable
define internal ptr @merge_patch(ptr noundef %0, ptr noundef %1, i32 noundef %2) #0 {
  %4 = alloca ptr, align 8
  %5 = alloca ptr, align 8
  %6 = alloca ptr, align 8
  %7 = alloca i32, align 4
  %8 = alloca ptr, align 8
  %9 = alloca i32, align 4
  %10 = alloca ptr, align 8
  %11 = alloca ptr, align 8
  store ptr %0, ptr %5, align 8, !tbaa !3
  store ptr %1, ptr %6, align 8, !tbaa !3
  store i32 %2, ptr %7, align 4, !tbaa !19
  call void @llvm.lifetime.start.p0(i64 8, ptr %8) #8
  store ptr null, ptr %8, align 8, !tbaa !3
  %12 = load ptr, ptr %6, align 8, !tbaa !3
  %13 = call i32 @cJSON_IsObject(ptr noundef %12)
  %14 = icmp ne i32 %13, 0
  br i1 %14, label %19, label %15

15:                                               ; preds = %3
  %16 = load ptr, ptr %5, align 8, !tbaa !3
  call void @cJSON_Delete(ptr noundef %16)
  %17 = load ptr, ptr %6, align 8, !tbaa !3
  %18 = call ptr @cJSON_Duplicate(ptr noundef %17, i32 noundef 1)
  store ptr %18, ptr %4, align 8
  store i32 1, ptr %9, align 4
  br label %91

19:                                               ; preds = %3
  %20 = load ptr, ptr %5, align 8, !tbaa !3
  %21 = call i32 @cJSON_IsObject(ptr noundef %20)
  %22 = icmp ne i32 %21, 0
  br i1 %22, label %26, label %23

23:                                               ; preds = %19
  %24 = load ptr, ptr %5, align 8, !tbaa !3
  call void @cJSON_Delete(ptr noundef %24)
  %25 = call ptr @cJSON_CreateObject()
  store ptr %25, ptr %5, align 8, !tbaa !3
  br label %26

26:                                               ; preds = %23, %19
  %27 = load ptr, ptr %6, align 8, !tbaa !3
  %28 = getelementptr inbounds nuw %struct.cJSON, ptr %27, i32 0, i32 2
  %29 = load ptr, ptr %28, align 8, !tbaa !10
  store ptr %29, ptr %8, align 8, !tbaa !3
  br label %30

30:                                               ; preds = %85, %26
  %31 = load ptr, ptr %8, align 8, !tbaa !3
  %32 = icmp ne ptr %31, null
  br i1 %32, label %33, label %89

33:                                               ; preds = %30
  %34 = load ptr, ptr %8, align 8, !tbaa !3
  %35 = call i32 @cJSON_IsNull(ptr noundef %34)
  %36 = icmp ne i32 %35, 0
  br i1 %36, label %37, label %51

37:                                               ; preds = %33
  %38 = load i32, ptr %7, align 4, !tbaa !19
  %39 = icmp ne i32 %38, 0
  br i1 %39, label %40, label %45

40:                                               ; preds = %37
  %41 = load ptr, ptr %5, align 8, !tbaa !3
  %42 = load ptr, ptr %8, align 8, !tbaa !3
  %43 = getelementptr inbounds nuw %struct.cJSON, ptr %42, i32 0, i32 7
  %44 = load ptr, ptr %43, align 8, !tbaa !16
  call void @cJSON_DeleteItemFromObjectCaseSensitive(ptr noundef %41, ptr noundef %44)
  br label %50

45:                                               ; preds = %37
  %46 = load ptr, ptr %5, align 8, !tbaa !3
  %47 = load ptr, ptr %8, align 8, !tbaa !3
  %48 = getelementptr inbounds nuw %struct.cJSON, ptr %47, i32 0, i32 7
  %49 = load ptr, ptr %48, align 8, !tbaa !16
  call void @cJSON_DeleteItemFromObject(ptr noundef %46, ptr noundef %49)
  br label %50

50:                                               ; preds = %45, %40
  br label %85

51:                                               ; preds = %33
  call void @llvm.lifetime.start.p0(i64 8, ptr %10) #8
  store ptr null, ptr %10, align 8, !tbaa !3
  call void @llvm.lifetime.start.p0(i64 8, ptr %11) #8
  store ptr null, ptr %11, align 8, !tbaa !3
  %52 = load i32, ptr %7, align 4, !tbaa !19
  %53 = icmp ne i32 %52, 0
  br i1 %53, label %54, label %60

54:                                               ; preds = %51
  %55 = load ptr, ptr %5, align 8, !tbaa !3
  %56 = load ptr, ptr %8, align 8, !tbaa !3
  %57 = getelementptr inbounds nuw %struct.cJSON, ptr %56, i32 0, i32 7
  %58 = load ptr, ptr %57, align 8, !tbaa !16
  %59 = call ptr @cJSON_DetachItemFromObjectCaseSensitive(ptr noundef %55, ptr noundef %58)
  store ptr %59, ptr %10, align 8, !tbaa !3
  br label %66

60:                                               ; preds = %51
  %61 = load ptr, ptr %5, align 8, !tbaa !3
  %62 = load ptr, ptr %8, align 8, !tbaa !3
  %63 = getelementptr inbounds nuw %struct.cJSON, ptr %62, i32 0, i32 7
  %64 = load ptr, ptr %63, align 8, !tbaa !16
  %65 = call ptr @cJSON_DetachItemFromObject(ptr noundef %61, ptr noundef %64)
  store ptr %65, ptr %10, align 8, !tbaa !3
  br label %66

66:                                               ; preds = %60, %54
  %67 = load ptr, ptr %10, align 8, !tbaa !3
  %68 = load ptr, ptr %8, align 8, !tbaa !3
  %69 = load i32, ptr %7, align 4, !tbaa !19
  %70 = call ptr @merge_patch(ptr noundef %67, ptr noundef %68, i32 noundef %69)
  store ptr %70, ptr %11, align 8, !tbaa !3
  %71 = load ptr, ptr %11, align 8, !tbaa !3
  %72 = icmp eq ptr %71, null
  br i1 %72, label %73, label %75

73:                                               ; preds = %66
  %74 = load ptr, ptr %5, align 8, !tbaa !3
  call void @cJSON_Delete(ptr noundef %74)
  store ptr null, ptr %4, align 8
  store i32 1, ptr %9, align 4
  br label %82

75:                                               ; preds = %66
  %76 = load ptr, ptr %5, align 8, !tbaa !3
  %77 = load ptr, ptr %8, align 8, !tbaa !3
  %78 = getelementptr inbounds nuw %struct.cJSON, ptr %77, i32 0, i32 7
  %79 = load ptr, ptr %78, align 8, !tbaa !16
  %80 = load ptr, ptr %11, align 8, !tbaa !3
  %81 = call i32 @cJSON_AddItemToObject(ptr noundef %76, ptr noundef %79, ptr noundef %80)
  store i32 0, ptr %9, align 4
  br label %82

82:                                               ; preds = %75, %73
  call void @llvm.lifetime.end.p0(i64 8, ptr %11) #8
  call void @llvm.lifetime.end.p0(i64 8, ptr %10) #8
  %83 = load i32, ptr %9, align 4
  switch i32 %83, label %91 [
    i32 0, label %84
  ]

84:                                               ; preds = %82
  br label %85

85:                                               ; preds = %84, %50
  %86 = load ptr, ptr %8, align 8, !tbaa !3
  %87 = getelementptr inbounds nuw %struct.cJSON, ptr %86, i32 0, i32 0
  %88 = load ptr, ptr %87, align 8, !tbaa !18
  store ptr %88, ptr %8, align 8, !tbaa !3
  br label %30

89:                                               ; preds = %30
  %90 = load ptr, ptr %5, align 8, !tbaa !3
  store ptr %90, ptr %4, align 8
  store i32 1, ptr %9, align 4
  br label %91

91:                                               ; preds = %89, %82, %15
  call void @llvm.lifetime.end.p0(i64 8, ptr %8) #8
  %92 = load ptr, ptr %4, align 8
  ret ptr %92
}