; Function Attrs: nounwind sspstrong uwtable
define internal fastcc ptr @merge_patch(ptr noundef %0, ptr noundef %1, i32 noundef range(i32 0, 2) %2) unnamed_addr #0 {
  %4 = tail call i32 @cJSON_IsObject(ptr noundef %1) #13
  %.not = icmp eq i32 %4, 0
  br i1 %.not, label %5, label %7

5:                                                ; preds = %3
  tail call void @cJSON_Delete(ptr noundef %0) #13
  %6 = tail call ptr @cJSON_Duplicate(ptr noundef %1, i32 noundef 1) #13
  br label %.loopexit

7:                                                ; preds = %3
  %8 = tail call i32 @cJSON_IsObject(ptr noundef %0) #13
  %.not35 = icmp eq i32 %8, 0
  br i1 %.not35, label %9, label %11

9:                                                ; preds = %7
  tail call void @cJSON_Delete(ptr noundef %0) #13
  %10 = tail call ptr @cJSON_CreateObject() #13
  br label %11

11:                                               ; preds = %9, %7
  %.032 = phi ptr [ %0, %7 ], [ %10, %9 ]
  %12 = getelementptr inbounds nuw i8, ptr %1, i64 16
  %.03041 = load ptr, ptr %12, align 8, !tbaa !3
  %.not3642 = icmp eq ptr %.03041, null
  br i1 %.not3642, label %.loopexit, label %.lr.ph

.lr.ph:                                           ; preds = %11
  %.not38 = icmp eq i32 %2, 0
  br i1 %.not38, label %.lr.ph.split.us.split.us, label %.lr.ph.split.split

.lr.ph.split.us.split.us:                         ; preds = %.lr.ph, %22
  %.03043.us.us = phi ptr [ %.030.us.us, %22 ], [ %.03041, %.lr.ph ]
  %13 = tail call i32 @cJSON_IsNull(ptr noundef nonnull %.03043.us.us) #13
  %.not37.us.us = icmp eq i32 %13, 0
  %14 = getelementptr inbounds nuw i8, ptr %.03043.us.us, i64 56
  %15 = load ptr, ptr %14, align 8, !tbaa !8
  br i1 %.not37.us.us, label %.split34.us.us, label %16

16:                                               ; preds = %.lr.ph.split.us.split.us
  tail call void @cJSON_DeleteItemFromObject(ptr noundef %.032, ptr noundef %15) #13
  br label %22

.split34.us.us:                                   ; preds = %.lr.ph.split.us.split.us
  %17 = tail call ptr @cJSON_DetachItemFromObject(ptr noundef %.032, ptr noundef %15) #13
  %18 = tail call fastcc ptr @merge_patch(ptr noundef %17, ptr noundef nonnull %.03043.us.us, i32 noundef 0)
  %.not39.us.us = icmp eq ptr %18, null
  br i1 %.not39.us.us, label %.thread, label %19

19:                                               ; preds = %.split34.us.us
  %20 = load ptr, ptr %14, align 8, !tbaa !8
  %21 = tail call i32 @cJSON_AddItemToObject(ptr noundef %.032, ptr noundef %20, ptr noundef nonnull %18) #13
  br label %22

22:                                               ; preds = %19, %16
  %.030.us.us = load ptr, ptr %.03043.us.us, align 8, !tbaa !3
  %.not36.us.us = icmp eq ptr %.030.us.us, null
  br i1 %.not36.us.us, label %.loopexit, label %.lr.ph.split.us.split.us

.lr.ph.split.split:                               ; preds = %.lr.ph, %32
  %.03043 = phi ptr [ %.030, %32 ], [ %.03041, %.lr.ph ]
  %23 = tail call i32 @cJSON_IsNull(ptr noundef nonnull %.03043) #13
  %.not37 = icmp eq i32 %23, 0
  %24 = getelementptr inbounds nuw i8, ptr %.03043, i64 56
  %25 = load ptr, ptr %24, align 8, !tbaa !8
  br i1 %.not37, label %.split, label %26

26:                                               ; preds = %.lr.ph.split.split
  tail call void @cJSON_DeleteItemFromObjectCaseSensitive(ptr noundef %.032, ptr noundef %25) #13
  br label %32

.split:                                           ; preds = %.lr.ph.split.split
  %27 = tail call ptr @cJSON_DetachItemFromObjectCaseSensitive(ptr noundef %.032, ptr noundef %25) #13
  %28 = tail call fastcc ptr @merge_patch(ptr noundef %27, ptr noundef nonnull %.03043, i32 noundef 1)
  %.not39 = icmp eq ptr %28, null
  br i1 %.not39, label %.thread, label %29

.thread:                                          ; preds = %.split, %.split34.us.us
  tail call void @cJSON_Delete(ptr noundef %.032) #13
  br label %.loopexit

29:                                               ; preds = %.split
  %30 = load ptr, ptr %24, align 8, !tbaa !8
  %31 = tail call i32 @cJSON_AddItemToObject(ptr noundef %.032, ptr noundef %30, ptr noundef nonnull %28) #13
  br label %32

32:                                               ; preds = %29, %26
  %.030 = load ptr, ptr %.03043, align 8, !tbaa !3
  %.not36 = icmp eq ptr %.030, null
  br i1 %.not36, label %.loopexit, label %.lr.ph.split.split

.loopexit:                                        ; preds = %32, %22, %11, %.thread, %5
  %.031 = phi ptr [ %6, %5 ], [ null, %.thread ], [ %.032, %11 ], [ %.032, %22 ], [ %.032, %32 ]
  ret ptr %.031
}